; Function Attrs: nounwind uwtable
define ptr @l_Lean_PrettyPrinter_formatTactic(ptr noundef %0, ptr noundef %1, ptr noundef %2, ptr noundef %3) local_unnamed_addr #0 {
  %5 = load ptr, ptr @l_Lean_PrettyPrinter_formatTactic___closed__2, align 8, !tbaa !4
  tail call void @lean_inc_heartbeat() #6
  %6 = tail call noalias ptr @mi_malloc_small(i64 noundef 32) #6
  %7 = icmp eq ptr %6, null
  br i1 %7, label %8, label %l_Lean_PrettyPrinter_formatCategory.exit

8:                                                ; preds = %4
  tail call void @lean_internal_panic_out_of_memory() #7
  unreachable

l_Lean_PrettyPrinter_formatCategory.exit:         ; preds = %4
  %9 = getelementptr inbounds nuw i8, ptr %6, i64 4
  store i32 1, ptr %6, align 4, !tbaa !8
  store i32 -184549344, ptr %9, align 4
  %10 = getelementptr inbounds nuw i8, ptr %6, i64 8
  store ptr @l_Lean_PrettyPrinter_Formatter_categoryFormatter, ptr %10, align 8, !tbaa !4
  %11 = getelementptr inbounds nuw i8, ptr %6, i64 16
  store i16 6, ptr %11, align 8, !tbaa !15
  %12 = getelementptr inbounds nuw i8, ptr %6, i64 18
  store i16 1, ptr %12, align 2, !tbaa !15
  %13 = getelementptr inbounds nuw i8, ptr %6, i64 24
  store ptr %5, ptr %13, align 8, !tbaa !4
  %14 = tail call ptr @l_Lean_PrettyPrinter_format(ptr noundef nonnull %6, ptr noundef %0, ptr noundef %1, ptr noundef %2, ptr noundef %3)
  ret ptr %14
}